target datalayout = "e-m:e-p270:32:32-p271:32:32-p272:64:64-i64:64-i128:128-f80:128-n8:16:32:64-S128"
target triple = "x86_64-pc-linux-gnu"

%struct.pseudo_merge_map = type { ptr, i64, i64, ptr, ptr, i64 }
%struct.pseudo_merge = type { ptr, ptr, i64, i64, i8 }

; Function Attrs: nounwind uwtable
define dso_local ptr @use_pseudo_merge(ptr noundef %0, ptr noundef %1) #0 {
  %3 = alloca ptr, align 8
  %4 = alloca ptr, align 8
  %5 = alloca i64, align 8
  store ptr %0, ptr %3, align 8, !tbaa !126
  store ptr %1, ptr %4, align 8, !tbaa !136
  %6 = load ptr, ptr %4, align 8, !tbaa !136
  %7 = getelementptr inbounds nuw %struct.pseudo_merge, ptr %6, i32 0, i32 4
  %8 = load i8, ptr %7, align 8
  %9 = lshr i8 %8, 1
  %10 = and i8 %9, 1
  %11 = zext i8 %10 to i32
  %12 = icmp ne i32 %11, 0
  br i1 %12, label %34, label %13

13:                                               ; preds = %2
  call void @llvm.lifetime.start.p0(i64 8, ptr %5) #10
  %14 = load ptr, ptr %4, align 8, !tbaa !136
  %15 = getelementptr inbounds nuw %struct.pseudo_merge, ptr %14, i32 0, i32 2
  %16 = load i64, ptr %15, align 8, !tbaa !140
  store i64 %16, ptr %5, align 8, !tbaa !36
  %17 = load ptr, ptr %3, align 8, !tbaa !126
  %18 = getelementptr inbounds nuw %struct.pseudo_merge_map, ptr %17, i32 0, i32 3
  %19 = load ptr, ptr %18, align 8, !tbaa !138
  %20 = load ptr, ptr %3, align 8, !tbaa !126
  %21 = getelementptr inbounds nuw %struct.pseudo_merge_map, ptr %20, i32 0, i32 5
  %22 = load i64, ptr %21, align 8, !tbaa !139
  %23 = call ptr @read_bitmap(ptr noundef %19, i64 noundef %22, ptr noundef %5)
  %24 = load ptr, ptr %4, align 8, !tbaa !136
  %25 = getelementptr inbounds nuw %struct.pseudo_merge, ptr %24, i32 0, i32 0
  store ptr %23, ptr %25, align 8, !tbaa !132
  %26 = load i64, ptr %5, align 8, !tbaa !36
  %27 = load ptr, ptr %4, align 8, !tbaa !136
  %28 = getelementptr inbounds nuw %struct.pseudo_merge, ptr %27, i32 0, i32 3
  store i64 %26, ptr %28, align 8, !tbaa !137
  %29 = load ptr, ptr %4, align 8, !tbaa !136
  %30 = getelementptr inbounds nuw %struct.pseudo_merge, ptr %29, i32 0, i32 4
  %31 = load i8, ptr %30, align 8
  %32 = and i8 %31, -3
  %33 = or i8 %32, 2
  store i8 %33, ptr %30, align 8
  call void @llvm.lifetime.end.p0(i64 8, ptr %5) #10
  br label %34

34:                                               ; preds = %13, %2
  %35 = load ptr, ptr %4, align 8, !tbaa !136
  ret ptr %35
}