; Function Attrs: nounwind uwtable
define dso_local noundef ptr @use_pseudo_merge(ptr noundef readonly captures(none) %0, ptr noundef returned %1) local_unnamed_addr #0 {
  %3 = alloca i64, align 8
  %4 = getelementptr inbounds nuw i8, ptr %1, i64 32
  %5 = load i8, ptr %4, align 8
  %6 = and i8 %5, 2
  %.not = icmp eq i8 %6, 0
  br i1 %.not, label %7, label %19

7:                                                ; preds = %2
  call void @llvm.lifetime.start.p0(i64 8, ptr nonnull %3) #15
  %8 = getelementptr inbounds nuw i8, ptr %1, i64 16
  %9 = load i64, ptr %8, align 8, !tbaa !114
  store i64 %9, ptr %3, align 8, !tbaa !111
  %10 = getelementptr inbounds nuw i8, ptr %0, i64 24
  %11 = load ptr, ptr %10, align 8, !tbaa !112
  %12 = getelementptr inbounds nuw i8, ptr %0, i64 40
  %13 = load i64, ptr %12, align 8, !tbaa !113
  %14 = call ptr @read_bitmap(ptr noundef %11, i64 noundef %13, ptr noundef nonnull %3) #15
  store ptr %14, ptr %1, align 8, !tbaa !106
  %15 = load i64, ptr %3, align 8, !tbaa !111
  %16 = getelementptr inbounds nuw i8, ptr %1, i64 24
  store i64 %15, ptr %16, align 8, !tbaa !110
  %17 = load i8, ptr %4, align 8
  %18 = or i8 %17, 2
  store i8 %18, ptr %4, align 8
  call void @llvm.lifetime.end.p0(i64 8, ptr nonnull %3) #15
  br label %19

19:                                               ; preds = %7, %2
  ret ptr %1
}